Certificate:
    Data:
        Version: 3 (0x2)
        Serial Number: 1 (0x1)
        Signature Algorithm: sha256WithRSAEncryption
        Issuer: C=CN, ST=SH, L=SH, O=czy, OU=czy, CN=Home Root CA
        Validity
            Not Before: May 10 13:12:02 2022 GMT
            Not After : May 10 13:12:02 2023 GMT
        Subject: C=CN, ST=SH, O=czy, OU=czy, CN=nas.cluster.com
        Subject Public Key Info:
            Public Key Algorithm: rsaEncryption
                RSA Public-Key: (4096 bit)
                Modulus:
                    00:a7:07:a3:49:09:81:9d:11:4f:7a:35:22:3f:e3:
                    04:bd:72:d3:08:cb:d1:21:4f:66:11:d2:1e:93:80:
                    cf:a1:12:32:4a:d4:cb:58:a8:be:25:7d:a4:c4:58:
                    96:6d:a8:5d:8d:94:86:d7:56:cf:8d:94:f8:14:3c:
                    46:89:80:a6:08:2e:58:03:b2:e6:c9:d0:98:38:1f:
                    1a:54:1c:a4:fd:a6:b3:b3:07:0a:0f:0a:09:21:0d:
                    c9:84:8b:84:41:57:22:7a:18:eb:d0:ef:a2:4c:fe:
                    44:eb:9b:9a:c0:f1:d4:70:11:48:5b:f1:50:ac:f0:
                    71:80:47:45:08:92:cc:40:09:17:c1:a9:e0:31:ba:
                    c6:6f:ac:6f:fd:d8:2c:05:2b:bc:83:76:16:26:8e:
                    00:1e:af:9c:44:a8:4b:4d:d0:e7:d3:c4:29:ba:55:
                    a3:10:9a:26:4f:dc:28:43:19:23:85:87:87:a2:5a:
                    4d:e3:1c:82:bb:66:3e:0d:59:cf:71:db:ad:20:fe:
                    a7:d9:c1:4f:59:27:31:3b:c2:25:21:12:e4:b9:00:
                    7c:dd:03:91:05:30:07:2a:fb:50:45:0d:da:88:34:
                    b3:a0:ea:1e:5f:c5:f9:c8:d1:d3:5d:97:40:ef:a8:
                    68:a5:fe:4d:88:43:2d:58:e5:67:b0:6c:e2:a9:70:
                    fe:6a:37:f5:75:cb:96:9c:a2:9b:e6:4f:c0:99:69:
                    2f:93:11:ed:2d:5f:71:98:11:06:91:9b:34:eb:90:
                    a9:51:75:7b:cb:4f:f0:d8:b8:61:09:96:26:13:24:
                    7c:c0:80:22:04:c2:d0:7d:d5:1b:89:f8:b4:6f:68:
                    8a:cb:36:12:87:9a:09:6a:04:14:a7:74:af:a9:05:
                    d3:fa:f9:09:ce:02:37:87:89:e7:18:c8:6f:bf:ae:
                    15:15:20:08:4d:d6:18:dc:97:09:fb:a2:c3:ca:f6:
                    da:d1:80:b1:b0:28:1b:b0:cc:dd:02:f7:13:41:06:
                    1c:42:b7:43:31:02:c4:92:52:b9:15:92:bb:5d:4e:
                    5b:f6:af:36:8c:09:fa:8d:16:25:1b:01:56:58:70:
                    75:65:b7:b7:15:b7:08:d0:85:a5:21:c1:10:bc:bc:
                    a3:de:53:e9:64:5e:f0:25:4f:dd:64:f1:57:58:dc:
                    94:6a:04:0c:f3:a0:6f:00:00:4d:06:36:a5:e4:72:
                    de:42:79:68:8b:b0:55:f1:ae:b0:e9:e2:0c:11:1f:
                    fc:a3:61:05:06:55:3a:9c:89:97:4d:b1:43:3e:d1:
                    dc:2c:8b:28:63:e2:d8:10:12:bc:b0:b0:11:96:64:
                    af:43:e8:94:b9:45:d2:8c:ff:2a:c3:6b:00:e2:ce:
                    c0:90:f9
                Exponent: 65537 (0x10001)
        X509v3 extensions:
            X509v3 Key Usage: 
                Digital Signature, Non Repudiation, Key Encipherment
            X509v3 Extended Key Usage: 
                TLS Web Server Authentication, TLS Web Client Authentication
            X509v3 Subject Alternative Name: 
                DNS:*.cluster.com
    Signature Algorithm: sha256WithRSAEncryption
         4f:15:b5:5e:7f:dc:25:06:ad:5f:8f:bd:ed:9c:84:64:ed:17:
         3e:6e:78:35:5e:49:b5:68:25:aa:b4:a7:e2:c3:29:ba:fa:d8:
         a9:1f:63:63:93:ea:cf:3e:41:34:80:0d:bf:66:5c:a8:ba:86:
         48:80:4b:6d:5e:7f:4a:72:68:72:d0:33:dc:5b:00:cb:63:cf:
         39:e8:e5:da:86:c3:a0:be:96:db:d3:e4:f3:4f:02:d4:28:64:
         c3:54:f5:05:0d:9d:0e:ab:7d:73:f9:52:af:c2:d6:b3:4f:e7:
         ea:7c:aa:9f:67:d7:6e:52:56:f0:b7:80:4c:5a:e9:9b:79:a3:
         d4:2b:82:de:60:79:92:06:94:52:9d:73:33:c8:0f:92:6d:fd:
         ec:12:85:0b:88:9b:19:0a:ac:80:6d:1d:d6:e2:04:cf:b7:be:
         0b:96:49:83:9b:c9:66:c5:2f:d9:6d:ff:7f:58:93:c2:d3:83:
         68:41:df:cd:e5:85:ec:4b:ca:6d:75:11:5b:28:da:54:0b:e1:
         38:1a:50:a3:db:57:7b:7c:73:07:76:0c:a3:2f:ce:69:e6:46:
         e5:b5:2e:73:e3:e0:b4:0b:88:69:10:3e:6b:54:8c:fb:b0:00:
         8b:3a:15:fd:25:3f:04:3b:11:93:1d:1f:cd:ea:29:43:46:3b:
         53:39:69:06:b4:1e:2d:9d:16:63:ad:0c:f8:8b:2c:60:1a:c1:
         50:1d:0b:8d:a6:8a:3c:f4:d9:0c:7f:a0:05:8a:bb:5f:85:c5:
         2c:fa:db:aa:73:df:11:30:64:63:78:8e:46:bf:22:7f:ba:f8:
         75:36:70:43:9c:3c:90:d8:d9:17:96:58:3e:76:ee:ac:0e:56:
         2f:f6:c0:5c:49:2f:ea:91:52:b4:28:53:9d:be:01:1d:22:e2:
         af:9e:51:e7:74:72:10:8e:5f:4e:d4:a5:54:91:0a:62:f7:6c:
         85:bb:dc:6d:16:df:1e:56:50:73:5c:17:c3:04:63:8d:40:e6:
         73:69:da:b9:02:86:ea:78:59:7b:bf:4d:d7:c5:3a:9d:2a:2d:
         ce:5e:ae:6b:46:fa:d7:8f:f5:df:70:7e:c8:bc:d6:63:79:d7:
         92:5c:98:f0:f2:52:e3:f8:7d:68:e0:7d:86:e7:8e:3a:62:74:
         9b:c4:55:27:61:6b:06:16:e5:59:b0:17:25:1b:3c:0e:6f:04:
         95:a5:e9:f9:da:cf:5d:2d:1e:c0:4b:f0:8b:61:4f:c6:2d:90:
         9d:9a:a2:92:1e:cf:50:a7:57:97:e5:65:68:4e:94:ec:f0:f4:
         e7:3d:dd:ce:c5:08:9c:c3:7a:33:9f:d1:aa:58:78:94:7d:5e:
         b8:8d:29:bd:ef:1d:ec:fb
-----BEGIN CERTIFICATE-----
MIIFbTCCA1WgAwIBAgIBATANBgkqhkiG9w0BAQsFADBaMQswCQYDVQQGEwJDTjEL
MAkGA1UECAwCU0gxCzAJBgNVBAcMAlNIMQwwCgYDVQQKDANjenkxDDAKBgNVBAsM
A2N6eTEVMBMGA1UEAwwMSG9tZSBSb290IENBMB4XDTIyMDUxMDEzMTIwMloXDTIz
MDUxMDEzMTIwMlowUDELMAkGA1UEBhMCQ04xCzAJBgNVBAgMAlNIMQwwCgYDVQQK
DANjenkxDDAKBgNVBAsMA2N6eTEYMBYGA1UEAwwPbmFzLmNsdXN0ZXIuY29tMIIC
IjANBgkqhkiG9w0BAQEFAAOCAg8AMIICCgKCAgEApwejSQmBnRFPejUiP+MEvXLT
CMvRIU9mEdIek4DPoRIyStTLWKi+JX2kxFiWbahdjZSG11bPjZT4FDxGiYCmCC5Y
A7LmydCYOB8aVByk/aazswcKDwoJIQ3JhIuEQVciehjr0O+iTP5E65uawPHUcBFI
W/FQrPBxgEdFCJLMQAkXwangMbrGb6xv/dgsBSu8g3YWJo4AHq+cRKhLTdDn08Qp
ulWjEJomT9woQxkjhYeHolpN4xyCu2Y+DVnPcdutIP6n2cFPWScxO8IlIRLkuQB8
3QORBTAHKvtQRQ3aiDSzoOoeX8X5yNHTXZdA76hopf5NiEMtWOVnsGziqXD+ajf1
dcuWnKKb5k/AmWkvkxHtLV9xmBEGkZs065CpUXV7y0/w2LhhCZYmEyR8wIAiBMLQ
fdUbifi0b2iKyzYSh5oJagQUp3SvqQXT+vkJzgI3h4nnGMhvv64VFSAITdYY3JcJ
+6LDyvba0YCxsCgbsMzdAvcTQQYcQrdDMQLEklK5FZK7XU5b9q82jAn6jRYlGwFW
WHB1Zbe3FbcI0IWlIcEQvLyj3lPpZF7wJU/dZPFXWNyUagQM86BvAABNBjal5HLe
Qnloi7BV8a6w6eIMER/8o2EFBlU6nImXTbFDPtHcLIsoY+LYEBK8sLARlmSvQ+iU
uUXSjP8qw2sA4s7AkPkCAwEAAaNIMEYwCwYDVR0PBAQDAgXgMB0GA1UdJQQWMBQG
CCsGAQUFBwMBBggrBgEFBQcDAjAYBgNVHREEETAPgg0qLmNsdXN0ZXIuY29tMA0G
CSqGSIb3DQEBCwUAA4ICAQBPFbVef9wlBq1fj73tnIRk7Rc+bng1Xkm1aCWqtKfi
wym6+tipH2Njk+rPPkE0gA2/ZlyouoZIgEttXn9Kcmhy0DPcWwDLY8856OXahsOg
vpbb0+TzTwLUKGTDVPUFDZ0Oq31z+VKvwtazT+fqfKqfZ9duUlbwt4BMWumbeaPU
K4LeYHmSBpRSnXMzyA+Sbf3sEoULiJsZCqyAbR3W4gTPt74LlkmDm8lmxS/Zbf9/
WJPC04NoQd/N5YXsS8ptdRFbKNpUC+E4GlCj21d7fHMHdgyjL85p5kbltS5z4+C0
C4hpED5rVIz7sACLOhX9JT8EOxGTHR/N6ilDRjtTOWkGtB4tnRZjrQz4iyxgGsFQ
HQuNpoo89NkMf6AFirtfhcUs+tuqc98RMGRjeI5GvyJ/uvh1NnBDnDyQ2NkXllg+
du6sDlYv9sBcSS/qkVK0KFOdvgEdIuKvnlHndHIQjl9O1KVUkQpi92yFu9xtFt8e
VlBzXBfDBGONQOZzadq5AobqeFl7v03XxTqdKi3OXq5rRvrXj/XfcH7IvNZjedeS
XJjw8lLj+H1o4H2G5446YnSbxFUnYWsGFuVZsBclGzwObwSVpen52s9dLR7AS/CL
YU/GLZCdmqKSHs9Qp1eX5WVoTpTs8PTnPd3OxQicw3ozn9GqWHiUfV64jSm97x3s
+w==
-----END CERTIFICATE-----
