Certificate:
    Data:
        Version: 3 (0x2)
        Serial Number: 1 (0x1)
        Signature Algorithm: sha256WithRSAEncryption
        Issuer: C=CN, ST=SH, L=SH, O=czy, OU=czy, CN=Home Root CA
        Validity
            Not Before: May 11 09:40:12 2022 GMT
            Not After : May 11 09:40:12 2023 GMT
        Subject: C=CN, ST=SH, O=czy, OU=czy, CN=server.cluster.com
        Subject Public Key Info:
            Public Key Algorithm: rsaEncryption
                RSA Public-Key: (4096 bit)
                Modulus:
                    00:d6:29:94:18:2c:2c:8f:9e:5f:73:d2:ee:2d:63:
                    5b:44:86:da:3b:8b:d0:22:2f:78:5a:ab:24:b8:a5:
                    56:84:0a:15:6e:66:d7:e9:01:9c:1c:ef:93:94:73:
                    cb:8d:d3:ab:c4:c8:62:f8:9d:a8:34:e1:00:33:73:
                    c8:d4:40:9d:69:5b:dc:d4:14:1a:6b:4a:9c:f5:81:
                    37:18:1c:72:02:56:9b:04:6f:51:c7:7c:8f:a1:97:
                    d9:85:62:ed:5a:e2:22:32:5b:c9:7d:f1:2d:d4:e5:
                    1c:22:0e:1a:4d:33:e7:46:7a:3a:79:98:ed:cd:f8:
                    fe:da:ea:73:37:1c:a9:4a:49:8b:ad:a6:5e:1d:8b:
                    26:3c:c6:4a:15:d0:67:db:a3:e0:a2:51:0b:2a:b4:
                    61:81:13:aa:e2:27:36:b3:63:87:1f:1a:90:67:97:
                    ea:25:7c:a4:1a:83:24:78:92:ec:d3:1e:83:2d:e0:
                    6a:54:a2:f8:2c:e4:45:3a:f1:5d:aa:48:e9:7b:07:
                    16:93:b2:f8:4f:c7:41:41:19:1f:9e:f7:ff:63:1a:
                    54:94:d4:27:b4:1f:a4:06:1a:aa:27:30:64:54:80:
                    9a:14:c9:07:66:af:32:71:4b:5b:65:6c:49:81:1b:
                    66:9d:3f:57:76:04:9c:cd:b9:8d:65:d7:70:e8:18:
                    d1:54:36:ac:58:5b:71:1b:cd:eb:e9:aa:24:81:e6:
                    4d:a1:0c:0d:a2:b4:9d:3d:f9:d2:5a:3d:48:49:fd:
                    3a:18:35:1b:84:05:dc:34:d7:cd:cd:58:4c:b5:58:
                    6e:e8:7d:ac:01:15:d2:b7:f7:84:29:cd:ee:2a:af:
                    6a:f0:1b:55:db:6d:77:c8:68:ee:fc:77:e9:7d:0e:
                    37:56:06:1a:9a:f8:75:82:3a:4f:ce:7a:4c:ce:c3:
                    c5:3a:18:4e:8e:60:28:d9:84:36:fb:5b:ef:b6:c1:
                    52:f0:6f:0f:f1:62:ed:73:47:89:8c:a1:7e:a4:52:
                    4d:68:05:a9:28:41:bd:f1:a6:3a:a6:b7:8e:0e:ff:
                    0d:41:84:8d:9a:76:b4:7c:9d:d7:29:62:f5:be:ee:
                    fd:dc:20:7e:40:79:0a:b6:ba:aa:f3:0e:74:60:d2:
                    c1:3b:ef:97:e6:27:f9:e0:82:b1:32:93:f4:9b:14:
                    f0:50:6d:31:6e:6e:fa:57:78:1c:84:b1:2c:13:f6:
                    01:a8:fd:e8:e9:c2:c4:84:26:49:7d:d0:c1:96:8e:
                    82:0b:bd:ba:8c:c3:f7:1e:6d:2d:ef:0b:81:85:96:
                    e8:35:57:65:1e:fd:aa:ac:87:43:36:30:b4:d4:c7:
                    d8:4a:ed:6c:46:af:0e:12:4c:8e:7f:01:5d:af:20:
                    97:95:6d
                Exponent: 65537 (0x10001)
        X509v3 extensions:
            X509v3 Key Usage: 
                Digital Signature, Non Repudiation, Key Encipherment
            X509v3 Extended Key Usage: 
                TLS Web Server Authentication, TLS Web Client Authentication
            X509v3 Subject Alternative Name: 
                DNS:*.cluster.com
    Signature Algorithm: sha256WithRSAEncryption
         3b:ad:83:d7:fa:1f:c9:6c:ea:d7:97:cc:4b:ef:79:a6:52:dc:
         c3:bd:87:d8:f1:49:3c:4c:b7:90:32:c4:ec:ae:6f:79:ec:e5:
         a6:04:fe:95:8f:9b:0b:be:f4:ab:05:59:a8:fb:8f:3d:e1:0c:
         2e:01:18:cf:be:11:2c:95:b2:2b:c0:3c:2d:fc:af:51:65:36:
         8f:3d:b8:37:7d:1c:39:12:49:64:c7:91:0f:c4:32:b1:02:71:
         97:9b:e7:f8:1f:9a:96:f8:9c:06:fa:c9:58:02:c7:93:2b:7d:
         98:d7:6a:7b:15:b4:d4:93:d1:f2:6a:26:a9:48:ca:fb:a5:22:
         02:51:28:66:3d:5a:60:5e:af:8d:7b:8b:c8:d9:62:15:c6:04:
         42:c8:ae:0e:45:a5:d3:73:99:d1:82:b4:04:05:d0:d8:c7:ad:
         f5:c7:61:c9:21:20:05:91:cc:f9:85:8a:c1:24:b6:21:10:25:
         ea:06:00:f1:3c:41:8b:54:7a:6e:27:3c:d8:61:44:13:71:43:
         0c:f0:05:32:76:3a:16:07:9a:b7:53:69:b7:dd:5e:25:78:2c:
         d7:29:92:60:f7:99:e5:1e:09:d3:8e:9e:90:bf:f8:7f:14:af:
         da:00:dc:18:e1:05:00:2d:34:07:50:02:97:48:b3:77:7a:b0:
         67:60:d0:37:06:4e:22:15:97:9a:1a:bd:3f:ba:b9:3c:0f:6c:
         7f:ff:a4:c9:c4:55:8d:15:dd:d8:65:86:a9:e1:1a:c3:f6:18:
         00:e2:9b:fa:c5:7d:35:75:6d:01:0c:89:e1:81:9f:34:b3:fa:
         01:57:65:cf:86:93:26:8d:02:a3:be:54:36:f1:54:2b:1f:9a:
         9e:f4:a7:4d:e9:86:59:5c:95:b4:49:c9:e8:ee:2f:2f:c6:76:
         57:6e:39:d6:f9:bf:88:c0:67:af:a0:6d:de:9d:18:03:9a:bd:
         9e:ed:5a:12:8e:0d:ac:04:7d:ef:9c:40:b0:02:bc:6d:82:23:
         e2:71:12:86:bd:d2:a2:60:65:71:17:97:9c:8d:52:4e:6e:26:
         ad:d8:23:69:92:30:b2:20:39:d5:f0:0d:87:a1:ab:61:23:3c:
         5b:1d:e8:62:73:09:72:4c:30:d2:d7:56:ce:5a:a9:16:67:1d:
         52:f9:fe:7f:7a:85:63:28:5a:7c:04:e7:6e:d4:5d:4e:84:eb:
         32:3f:9f:10:0f:11:5f:ce:c8:c9:9f:e6:55:fd:54:be:25:50:
         b8:9c:68:49:19:45:83:e7:26:83:dc:2e:62:a5:4c:71:a1:d4:
         e0:4c:01:92:15:cc:b5:d1:fb:61:a4:b9:47:3f:7c:c5:04:53:
         cc:05:13:3f:d8:e2:0b:e0
-----BEGIN CERTIFICATE-----
MIIFcDCCA1igAwIBAgIBATANBgkqhkiG9w0BAQsFADBaMQswCQYDVQQGEwJDTjEL
MAkGA1UECAwCU0gxCzAJBgNVBAcMAlNIMQwwCgYDVQQKDANjenkxDDAKBgNVBAsM
A2N6eTEVMBMGA1UEAwwMSG9tZSBSb290IENBMB4XDTIyMDUxMTA5NDAxMloXDTIz
MDUxMTA5NDAxMlowUzELMAkGA1UEBhMCQ04xCzAJBgNVBAgMAlNIMQwwCgYDVQQK
DANjenkxDDAKBgNVBAsMA2N6eTEbMBkGA1UEAwwSc2VydmVyLmNsdXN0ZXIuY29t
MIICIjANBgkqhkiG9w0BAQEFAAOCAg8AMIICCgKCAgEA1imUGCwsj55fc9LuLWNb
RIbaO4vQIi94WqskuKVWhAoVbmbX6QGcHO+TlHPLjdOrxMhi+J2oNOEAM3PI1ECd
aVvc1BQaa0qc9YE3GBxyAlabBG9Rx3yPoZfZhWLtWuIiMlvJffEt1OUcIg4aTTPn
Rno6eZjtzfj+2upzNxypSkmLraZeHYsmPMZKFdBn26PgolELKrRhgROq4ic2s2OH
HxqQZ5fqJXykGoMkeJLs0x6DLeBqVKL4LORFOvFdqkjpewcWk7L4T8dBQRkfnvf/
YxpUlNQntB+kBhqqJzBkVICaFMkHZq8ycUtbZWxJgRtmnT9XdgSczbmNZddw6BjR
VDasWFtxG83r6aokgeZNoQwNorSdPfnSWj1ISf06GDUbhAXcNNfNzVhMtVhu6H2s
ARXSt/eEKc3uKq9q8BtV2213yGju/HfpfQ43VgYamvh1gjpPznpMzsPFOhhOjmAo
2YQ2+1vvtsFS8G8P8WLtc0eJjKF+pFJNaAWpKEG98aY6preODv8NQYSNmna0fJ3X
KWL1vu793CB+QHkKtrqq8w50YNLBO++X5if54IKxMpP0mxTwUG0xbm76V3gchLEs
E/YBqP3o6cLEhCZJfdDBlo6CC726jMP3Hm0t7wuBhZboNVdlHv2qrIdDNjC01MfY
Su1sRq8OEkyOfwFdryCXlW0CAwEAAaNIMEYwCwYDVR0PBAQDAgXgMB0GA1UdJQQW
MBQGCCsGAQUFBwMBBggrBgEFBQcDAjAYBgNVHREEETAPgg0qLmNsdXN0ZXIuY29t
MA0GCSqGSIb3DQEBCwUAA4ICAQA7rYPX+h/JbOrXl8xL73mmUtzDvYfY8Uk8TLeQ
MsTsrm957OWmBP6Vj5sLvvSrBVmo+4894QwuARjPvhEslbIrwDwt/K9RZTaPPbg3
fRw5Eklkx5EPxDKxAnGXm+f4H5qW+JwG+slYAseTK32Y12p7FbTUk9HyaiapSMr7
pSICUShmPVpgXq+Ne4vI2WIVxgRCyK4ORaXTc5nRgrQEBdDYx631x2HJISAFkcz5
hYrBJLYhECXqBgDxPEGLVHpuJzzYYUQTcUMM8AUydjoWB5q3U2m33V4leCzXKZJg
95nlHgnTjp6Qv/h/FK/aANwY4QUALTQHUAKXSLN3erBnYNA3Bk4iFZeaGr0/urk8
D2x//6TJxFWNFd3YZYap4RrD9hgA4pv6xX01dW0BDInhgZ80s/oBV2XPhpMmjQKj
vlQ28VQrH5qe9KdN6YZZXJW0Scno7i8vxnZXbjnW+b+IwGevoG3enRgDmr2e7VoS
jg2sBH3vnECwArxtgiPicRKGvdKiYGVxF5ecjVJObiat2CNpkjCyIDnV8A2Hoath
IzxbHehicwlyTDDS11bOWqkWZx1S+f5/eoVjKFp8BOdu1F1OhOsyP58QDxFfzsjJ
n+ZV/VS+JVC4nGhJGUWD5yaD3C5ipUxxodTgTAGSFcy10fthpLlHP3zFBFPMBRM/
2OIL4A==
-----END CERTIFICATE-----
