Certificate:
    Data:
        Version: 3 (0x2)
        Serial Number: 1 (0x1)
        Signature Algorithm: sha256WithRSAEncryption
        Issuer: C=CN, ST=SH, L=SH, O=Home, OU=IT, CN=Home Root CA
        Validity
            Not Before: Jul  5 08:07:31 2022 GMT
            Not After : Jul  5 08:07:31 2023 GMT
        Subject: C=CN, ST=SH, O=Home, OU=IT, CN=server.czy21-internal.com
        Subject Public Key Info:
            Public Key Algorithm: rsaEncryption
                Public-Key: (4096 bit)
                Modulus:
                    00:a1:d5:32:e1:c4:a7:69:eb:5e:6e:6e:1c:8b:66:
                    04:01:4a:31:2a:4e:ba:99:6a:e6:05:c4:0b:f3:b2:
                    c9:aa:2d:cf:f4:81:67:81:64:14:73:48:a9:e5:1b:
                    5b:06:17:89:03:a3:55:4e:9e:1d:6e:f3:39:e6:9e:
                    ef:f2:48:17:f2:fe:2c:4e:94:d1:b4:7b:65:2b:a0:
                    c5:39:2a:8f:b4:c3:4e:85:fe:06:7f:93:28:52:c5:
                    84:f8:01:2f:65:0d:ed:1a:43:cb:78:18:10:3b:ad:
                    92:cf:ca:e7:9e:55:04:17:ec:ad:a5:5c:82:d5:66:
                    36:75:f8:2e:9c:ad:87:a8:94:55:fa:ba:3b:d7:89:
                    14:8b:bc:2d:da:c5:e8:d6:57:23:b2:b5:8f:d1:56:
                    11:2b:24:db:f1:a2:8f:81:73:bd:48:19:1e:4f:9a:
                    1f:7d:7b:cd:38:cf:75:30:42:c3:81:f9:32:94:a5:
                    56:fe:8a:e6:4d:a5:f1:e5:36:1f:ff:ea:43:fd:75:
                    37:75:de:c9:de:eb:3d:44:28:58:37:b6:47:5e:e8:
                    59:61:d6:ef:1d:34:ed:2c:95:c9:f8:07:4b:0f:e5:
                    40:5f:89:c5:90:f4:4a:70:e5:d6:8a:40:f6:2f:38:
                    90:20:b1:b2:b2:de:3f:b0:20:a2:e4:c8:92:c2:60:
                    39:1d:2a:cb:18:a7:27:26:eb:63:20:b0:1b:6e:91:
                    dd:c9:4c:e2:7a:5f:71:6c:f0:8e:a0:13:1b:b8:e2:
                    0b:4d:4a:8f:81:9e:7e:90:fa:4d:c3:40:4b:05:ba:
                    3b:79:3c:16:6e:da:b9:4a:fb:e8:2f:5d:37:d1:d8:
                    92:fd:5c:0f:2c:8d:cd:6e:6a:5b:dc:dd:b9:3c:86:
                    06:76:a4:61:42:00:dc:ae:2d:c7:d8:d4:46:c0:e9:
                    5f:0e:23:da:31:a1:0f:15:69:7f:c9:1d:dc:20:cf:
                    70:7c:7d:6b:cd:0a:14:19:5b:4e:ae:a5:88:42:55:
                    7d:e9:38:07:6e:5d:8c:8e:d1:a9:3a:56:86:fc:ad:
                    52:c2:33:b1:68:54:05:5e:3b:6b:3b:a6:23:d1:7b:
                    91:bb:dd:7c:49:66:1d:36:55:c5:94:ed:d3:fc:5b:
                    78:79:92:09:93:17:8b:b8:7a:9e:ba:0c:d4:1f:05:
                    42:8b:56:b2:a4:54:09:cd:77:5a:d3:cf:f4:e4:e0:
                    99:32:51:86:b3:c5:87:20:25:da:42:c7:cb:e5:93:
                    ab:5e:19:9c:dd:81:41:26:90:dc:ce:d0:d8:eb:36:
                    ad:c3:d9:21:bf:45:08:ee:29:3e:6e:a0:b4:e1:fb:
                    6b:57:b2:c6:48:48:d6:8b:14:a3:2f:74:b3:dd:77:
                    b7:82:bb
                Exponent: 65537 (0x10001)
        X509v3 extensions:
            X509v3 Key Usage: 
                Digital Signature, Non Repudiation, Key Encipherment
            X509v3 Extended Key Usage: 
                TLS Web Server Authentication, TLS Web Client Authentication
            X509v3 Subject Alternative Name: 
                DNS:*.czy21-internal.com
            X509v3 Subject Key Identifier: 
                B0:85:6E:EA:80:D8:23:3E:21:D0:BD:9E:90:FD:02:8B:03:9C:26:64
            X509v3 Authority Key Identifier: 
                64:76:C7:67:BE:68:CA:EB:2F:C8:51:71:73:27:14:31:F5:D0:EF:44
    Signature Algorithm: sha256WithRSAEncryption
    Signature Value:
        53:e5:1b:27:20:05:59:ce:62:0d:bf:a9:46:cd:02:61:75:34:
        b3:6a:f4:81:c1:33:1f:88:42:46:a4:fb:86:da:b6:70:ac:5a:
        f2:77:ac:04:db:1b:3f:e1:e8:df:48:f0:62:cf:04:be:e4:80:
        cc:5c:17:ee:a3:7d:5c:0a:c1:11:21:e7:d4:00:b0:54:84:5d:
        85:a9:67:bf:af:89:25:13:18:01:bb:90:40:d6:5a:49:cc:68:
        d1:7c:08:f7:d1:ee:05:eb:a8:04:8c:a8:8f:ac:fb:c6:c7:66:
        4b:e7:0e:80:83:24:29:4c:62:0e:cb:8e:03:b1:7e:c3:aa:6e:
        d7:c2:b5:6c:4a:c5:2f:ce:a6:75:a3:39:70:78:de:ab:df:9b:
        8f:5e:d5:73:35:90:b3:3b:bc:25:f9:84:20:11:a0:e2:0f:f6:
        e0:70:b2:e5:01:50:f5:8f:b4:06:4f:86:87:96:a2:4f:fa:ca:
        53:ff:4a:95:de:3f:df:1c:e8:86:cf:78:55:50:07:44:1e:7f:
        10:39:85:78:a7:e1:2d:79:91:4c:e2:7c:b5:e9:ec:5e:e2:60:
        d2:03:e0:65:4c:eb:ef:9b:af:7a:fd:0e:0b:2c:7a:a6:5c:71:
        2a:2d:11:e1:43:5f:f0:59:1d:ad:d2:61:2a:97:aa:fa:31:33:
        74:e3:0d:c6:b9:dc:4c:d2:f2:e5:78:97:fd:25:26:53:40:3f:
        c4:d6:7d:84:39:8e:a8:01:11:37:07:6d:2e:0c:49:f1:45:71:
        90:4c:a3:47:3d:8e:8e:e6:69:8d:13:69:96:2c:22:d5:88:03:
        e3:17:86:50:89:42:ec:de:9e:1b:11:c6:d9:ad:31:99:f1:1f:
        7f:a6:2f:e1:53:27:1c:fc:a0:13:91:38:34:b2:0f:0a:f3:67:
        db:fb:a4:1c:dd:7c:c4:d6:ba:98:cc:8e:77:26:dc:5b:e1:f5:
        e7:49:b5:c3:84:0d:17:de:c3:14:db:0c:b8:54:03:1b:2a:59:
        1d:c1:0f:fa:63:a6:3b:a9:60:6c:1f:7c:da:7f:a6:0d:9a:6a:
        b9:4e:cb:8c:67:3a:bc:22:11:28:1d:1e:7e:6f:09:54:97:95:
        25:b8:85:e0:21:15:75:1d:dc:0a:c6:d9:a8:de:69:18:e6:92:
        00:05:dd:03:a8:a7:2a:ff:eb:63:17:ef:70:8b:c3:f2:b4:c6:
        17:07:f2:6a:fd:92:3d:86:5d:b2:bb:67:9a:37:c8:e5:eb:80:
        0c:6e:03:93:30:00:0d:66:bd:b9:7c:fb:c1:e3:ac:8d:18:9a:
        b1:4b:bb:29:fe:e7:f1:c7:31:1e:ed:5a:b2:7b:f4:48:27:31:
        95:f0:be:3d:46:f4:0f:e4
-----BEGIN CERTIFICATE-----
MIIFsjCCA5qgAwIBAgIBATANBgkqhkiG9w0BAQsFADBaMQswCQYDVQQGEwJDTjEL
MAkGA1UECAwCU0gxCzAJBgNVBAcMAlNIMQ0wCwYDVQQKDARIb21lMQswCQYDVQQL
DAJJVDEVMBMGA1UEAwwMSG9tZSBSb290IENBMB4XDTIyMDcwNTA4MDczMVoXDTIz
MDcwNTA4MDczMVowUzELMAkGA1UEBhMCQ04xCzAJBgNVBAgMAlNIMQ0wCwYDVQQK
DARIb21lMQswCQYDVQQLDAJJVDEbMBkGA1UEAwwSc2VydmVyLmNsdXN0ZXIuY29t
MIICIjANBgkqhkiG9w0BAQEFAAOCAg8AMIICCgKCAgEAodUy4cSnaetebm4ci2YE
AUoxKk66mWrmBcQL87LJqi3P9IFngWQUc0ip5RtbBheJA6NVTp4dbvM55p7v8kgX
8v4sTpTRtHtlK6DFOSqPtMNOhf4Gf5MoUsWE+AEvZQ3tGkPLeBgQO62Sz8rnnlUE
F+ytpVyC1WY2dfgunK2HqJRV+ro714kUi7wt2sXo1lcjsrWP0VYRKyTb8aKPgXO9
SBkeT5offXvNOM91MELDgfkylKVW/ormTaXx5TYf/+pD/XU3dd7J3us9RChYN7ZH
XuhZYdbvHTTtLJXJ+AdLD+VAX4nFkPRKcOXWikD2LziQILGyst4/sCCi5MiSwmA5
HSrLGKcnJutjILAbbpHdyUziel9xbPCOoBMbuOILTUqPgZ5+kPpNw0BLBbo7eTwW
btq5SvvoL1030diS/VwPLI3Nbmpb3N25PIYGdqRhQgDcri3H2NRGwOlfDiPaMaEP
FWl/yR3cIM9wfH1rzQoUGVtOrqWIQlV96TgHbl2MjtGpOlaG/K1SwjOxaFQFXjtr
O6Yj0XuRu918SWYdNlXFlO3T/Ft4eZIJkxeLuHqeugzUHwVCi1aypFQJzXda08/0
5OCZMlGGs8WHICXaQsfL5ZOrXhmc3YFBJpDcztDY6zatw9khv0UI7ik+bqC04ftr
V7LGSEjWixSjL3Sz3Xe3grsCAwEAAaOBiTCBhjALBgNVHQ8EBAMCBeAwHQYDVR0l
BBYwFAYIKwYBBQUHAwEGCCsGAQUFBwMCMBgGA1UdEQQRMA+CDSouY2x1c3Rlci5j
b20wHQYDVR0OBBYEFLCFbuqA2CM+IdC9npD9AosDnCZkMB8GA1UdIwQYMBaAFGR2
x2e+aMrrL8hRcXMnFDH10O9EMA0GCSqGSIb3DQEBCwUAA4ICAQBT5RsnIAVZzmIN
v6lGzQJhdTSzavSBwTMfiEJGpPuG2rZwrFryd6wE2xs/4ejfSPBizwS+5IDMXBfu
o31cCsERIefUALBUhF2FqWe/r4klExgBu5BA1lpJzGjRfAj30e4F66gEjKiPrPvG
x2ZL5w6AgyQpTGIOy44DsX7Dqm7XwrVsSsUvzqZ1ozlweN6r35uPXtVzNZCzO7wl
+YQgEaDiD/bgcLLlAVD1j7QGT4aHlqJP+spT/0qV3j/fHOiGz3hVUAdEHn8QOYV4
p+EteZFM4ny16exe4mDSA+BlTOvvm696/Q4LLHqmXHEqLRHhQ1/wWR2t0mEql6r6
MTN04w3GudxM0vLleJf9JSZTQD/E1n2EOY6oARE3B20uDEnxRXGQTKNHPY6O5mmN
E2mWLCLViAPjF4ZQiULs3p4bEcbZrTGZ8R9/pi/hUycc/KATkTg0sg8K82fb+6Qc
3XzE1rqYzI53Jtxb4fXnSbXDhA0X3sMU2wy4VAMbKlkdwQ/6Y6Y7qWBsH3zaf6YN
mmq5TsuMZzq8IhEoHR5+bwlUl5UluIXgIRV1HdwKxtmo3mkY5pIABd0DqKcq/+tj
F+9wi8PytMYXB/Jq/ZI9hl2yu2eaN8jl64AMbgOTMAANZr25fPvB46yNGJqxS7sp
/ufxxzEe7Vqye/RIJzGV8L49RvQP5A==
-----END CERTIFICATE-----
