Certificate:
    Data:
        Version: 3 (0x2)
        Serial Number: 1 (0x1)
        Signature Algorithm: sha256WithRSAEncryption
        Issuer: C=CN, ST=SH, L=SH, O=SH, OU=SH, CN=ubun.cluster.com
        Validity
            Not Before: May 10 09:16:53 2022 GMT
            Not After : May 10 09:16:53 2023 GMT
        Subject: C=CN, ST=SH, O=SH, OU=SH, CN=ubun.cluster.com
        Subject Public Key Info:
            Public Key Algorithm: rsaEncryption
                RSA Public-Key: (4096 bit)
                Modulus:
                    00:cc:92:01:c6:a5:ce:5e:de:e2:0d:83:b5:f1:9e:
                    f6:40:96:27:b6:ff:a2:b2:45:86:f6:41:ec:c0:fe:
                    38:67:a4:75:67:85:3a:55:1a:f8:f5:11:af:3d:dc:
                    06:1f:e1:6f:59:b6:2f:74:b2:e2:99:c9:5f:1b:64:
                    71:ec:0e:6c:59:42:30:4a:97:5b:dc:14:9f:a8:aa:
                    31:49:af:8f:fb:2a:ad:79:10:e0:f4:ea:b5:3f:15:
                    eb:67:43:30:37:ac:1f:47:a2:4e:ba:85:9b:ba:ed:
                    a9:74:38:17:bd:65:12:22:f9:44:2a:fe:fb:bb:e8:
                    e3:7f:f9:b7:7d:a4:ec:a6:ba:da:fb:73:f7:79:0e:
                    a7:8d:50:6c:91:d6:c8:28:57:43:8e:af:6e:84:3d:
                    2e:1d:1f:40:f1:0a:e6:f5:6f:87:6c:51:6f:47:f2:
                    0a:a2:bb:11:a3:85:1e:2e:23:ac:37:eb:9a:36:f9:
                    88:33:97:94:94:52:d6:49:fa:5d:2d:70:25:ec:dc:
                    d0:5d:d5:c8:47:fc:a2:22:92:90:32:c7:fa:aa:fe:
                    c5:67:f4:eb:4b:b7:b0:12:1a:12:29:62:52:14:fe:
                    b4:1e:27:be:fe:8c:ab:ac:0a:65:ab:a7:83:ea:d7:
                    31:c6:4d:60:ed:31:1f:d3:1c:06:57:93:ee:aa:23:
                    aa:e3:e8:fa:5c:79:72:ea:fa:2c:1c:ae:56:98:f8:
                    e2:0b:31:60:a8:15:6d:c4:6b:75:a7:c5:8e:d6:68:
                    42:88:28:ae:aa:c9:bc:d5:f3:86:62:f4:78:8e:37:
                    ae:c7:62:a8:d1:ac:dd:13:0f:c4:cb:91:11:17:5c:
                    cb:c8:a4:05:2f:9a:9b:03:d0:5a:31:1e:57:19:ae:
                    43:ac:3a:d8:52:2d:75:e2:5a:42:75:99:cb:b5:83:
                    5f:e7:42:e7:4e:ad:fa:ad:77:c8:ac:27:9b:e8:90:
                    59:e0:a9:6c:f5:a2:1e:c3:19:c2:f2:39:c3:29:f7:
                    9a:b5:1b:57:fe:fb:9f:20:24:5d:7d:f6:0d:2d:86:
                    f7:d7:83:89:eb:34:39:2b:27:db:84:1b:8e:58:49:
                    b7:13:41:60:35:a3:9c:23:a3:cc:96:a9:0a:af:5e:
                    95:e4:3e:b4:36:3e:a6:e1:7c:69:ca:21:87:eb:4e:
                    81:47:96:8e:79:db:5e:dd:35:af:55:21:43:76:98:
                    48:8e:7f:f5:90:f5:40:55:b2:56:8c:a0:91:5f:7d:
                    7b:ee:88:8a:8f:3d:a5:5b:30:92:c9:ca:a4:f2:91:
                    9e:ac:d9:2f:93:a5:de:06:2b:de:6d:cd:fc:1f:1c:
                    07:16:d9:4f:f5:a0:3b:0c:9d:6a:7e:40:b6:18:45:
                    84:8d:61
                Exponent: 65537 (0x10001)
        X509v3 extensions:
            X509v3 Key Usage: 
                Digital Signature, Non Repudiation, Key Encipherment
            X509v3 Extended Key Usage: 
                TLS Web Server Authentication, TLS Web Client Authentication
            X509v3 Subject Alternative Name: 
                DNS:ubun.cluster.com
    Signature Algorithm: sha256WithRSAEncryption
         7e:10:d7:4f:86:e7:7a:49:3f:62:91:91:d9:7f:ce:e4:cf:bd:
         b6:58:62:70:14:09:a4:34:ae:9e:56:4e:7b:08:5e:79:51:ee:
         a0:4f:a9:b8:3d:72:59:7d:90:b5:09:bc:ab:d2:f9:b7:af:39:
         60:11:88:22:18:fd:66:cb:6a:bd:54:44:40:63:80:47:ee:44:
         ab:7d:ab:68:aa:71:52:33:b2:88:9c:23:b6:12:29:5a:ad:79:
         79:e1:91:5e:6e:48:08:e8:f5:7e:41:e7:5c:6c:14:9f:29:4a:
         5f:44:f4:50:90:14:5b:f6:af:49:2d:15:eb:e0:50:53:e3:1f:
         b7:14:8e:d5:1d:05:ac:bf:e4:5b:5f:38:15:e3:09:bc:fb:22:
         0c:79:33:aa:24:97:9a:fc:47:93:2e:5a:19:d8:3e:f3:54:4e:
         59:d5:d9:7a:61:8f:2c:73:57:9a:91:8e:6e:27:99:d5:0f:f6:
         56:be:4f:54:26:6f:29:c6:df:1e:26:77:0c:6c:8b:c2:a5:7b:
         06:1e:d6:ab:2e:04:b0:21:6e:4f:e8:dc:1c:58:0e:7e:47:9e:
         68:34:36:e6:6d:b2:f0:22:1d:57:80:7c:ba:bb:32:76:a4:da:
         1b:c6:ce:1a:fe:98:a4:1a:53:00:d7:21:27:20:6e:d6:a8:c9:
         a9:58:27:c2:be:3e:a8:4c:75:c6:df:02:8b:00:ee:91:7d:0a:
         2a:75:72:ec:70:e3:22:88:9c:76:f7:f6:2e:0f:55:c7:d5:8b:
         8f:01:62:70:e2:e1:2a:27:b7:b6:de:f3:dd:a6:be:15:61:23:
         57:3a:63:55:5a:7f:cb:73:7d:69:df:8c:39:a3:0b:e8:0f:a9:
         e9:de:0c:24:a0:86:0a:7f:78:7f:44:40:5b:4e:56:6b:e8:00:
         f5:90:a7:f8:1d:f6:54:53:d5:90:67:b1:8c:93:36:cd:4c:45:
         74:88:60:58:b2:e9:58:d7:6f:8b:9e:b5:50:e1:1d:04:62:74:
         c9:47:ca:ca:2c:aa:ca:3c:bd:a7:12:45:28:f8:f9:4c:5a:cf:
         64:23:3c:4f:a8:21:e3:59:b0:cd:2d:f4:85:61:b2:9f:04:1d:
         72:fc:aa:cb:53:85:41:e7:25:69:a8:69:d4:00:6c:d1:7a:96:
         cd:18:c0:e5:1d:44:83:f7:5a:c6:0d:28:c8:76:72:71:66:dd:
         9f:a9:76:3e:ca:ff:fb:59:14:07:fe:95:a3:05:42:15:7f:28:
         82:8c:2a:fc:be:e9:6e:9c:46:d4:fe:94:cc:a0:fe:85:1f:e4:
         83:a2:b5:ee:3d:02:cf:5b:6e:ba:0d:3a:ac:ab:6f:5d:50:95:
         ff:9f:ae:75:8f:d5:cd:ca
-----BEGIN CERTIFICATE-----
MIIFcTCCA1mgAwIBAgIBATANBgkqhkiG9w0BAQsFADBcMQswCQYDVQQGEwJDTjEL
MAkGA1UECAwCU0gxCzAJBgNVBAcMAlNIMQswCQYDVQQKDAJTSDELMAkGA1UECwwC
U0gxGTAXBgNVBAMMEHVidW4uY2x1c3Rlci5jb20wHhcNMjIwNTEwMDkxNjUzWhcN
MjMwNTEwMDkxNjUzWjBPMQswCQYDVQQGEwJDTjELMAkGA1UECAwCU0gxCzAJBgNV
BAoMAlNIMQswCQYDVQQLDAJTSDEZMBcGA1UEAwwQdWJ1bi5jbHVzdGVyLmNvbTCC
AiIwDQYJKoZIhvcNAQEBBQADggIPADCCAgoCggIBAMySAcalzl7e4g2DtfGe9kCW
J7b/orJFhvZB7MD+OGekdWeFOlUa+PURrz3cBh/hb1m2L3Sy4pnJXxtkcewObFlC
MEqXW9wUn6iqMUmvj/sqrXkQ4PTqtT8V62dDMDesH0eiTrqFm7rtqXQ4F71lEiL5
RCr++7vo43/5t32k7Ka62vtz93kOp41QbJHWyChXQ46vboQ9Lh0fQPEK5vVvh2xR
b0fyCqK7EaOFHi4jrDfrmjb5iDOXlJRS1kn6XS1wJezc0F3VyEf8oiKSkDLH+qr+
xWf060u3sBIaEiliUhT+tB4nvv6Mq6wKZaung+rXMcZNYO0xH9McBleT7qojquPo
+lx5cur6LByuVpj44gsxYKgVbcRrdafFjtZoQogorqrJvNXzhmL0eI43rsdiqNGs
3RMPxMuRERdcy8ikBS+amwPQWjEeVxmuQ6w62FItdeJaQnWZy7WDX+dC506t+q13
yKwnm+iQWeCpbPWiHsMZwvI5wyn3mrUbV/77nyAkXX32DS2G99eDies0OSsn24Qb
jlhJtxNBYDWjnCOjzJapCq9eleQ+tDY+puF8acohh+tOgUeWjnnbXt01r1UhQ3aY
SI5/9ZD1QFWyVoygkV99e+6Iio89pVswksnKpPKRnqzZL5Ol3gYr3m3N/B8cBxbZ
T/WgOwydan5AthhFhI1hAgMBAAGjSzBJMAsGA1UdDwQEAwIF4DAdBgNVHSUEFjAU
BggrBgEFBQcDAQYIKwYBBQUHAwIwGwYDVR0RBBQwEoIQdWJ1bi5jbHVzdGVyLmNv
bTANBgkqhkiG9w0BAQsFAAOCAgEAfhDXT4bnekk/YpGR2X/O5M+9tlhicBQJpDSu
nlZOewheeVHuoE+puD1yWX2QtQm8q9L5t685YBGIIhj9ZstqvVREQGOAR+5Eq32r
aKpxUjOyiJwjthIpWq15eeGRXm5ICOj1fkHnXGwUnylKX0T0UJAUW/avSS0V6+BQ
U+MftxSO1R0FrL/kW184FeMJvPsiDHkzqiSXmvxHky5aGdg+81ROWdXZemGPLHNX
mpGObieZ1Q/2Vr5PVCZvKcbfHiZ3DGyLwqV7Bh7Wqy4EsCFuT+jcHFgOfkeeaDQ2
5m2y8CIdV4B8ursydqTaG8bOGv6YpBpTANchJyBu1qjJqVgnwr4+qEx1xt8CiwDu
kX0KKnVy7HDjIoicdvf2Lg9Vx9WLjwFicOLhKie3tt7z3aa+FWEjVzpjVVp/y3N9
ad+MOaML6A+p6d4MJKCGCn94f0RAW05Wa+gA9ZCn+B32VFPVkGexjJM2zUxFdIhg
WLLpWNdvi561UOEdBGJ0yUfKyiyqyjy9pxJFKPj5TFrPZCM8T6gh41mwzS30hWGy
nwQdcvyqy1OFQeclaahp1ABs0XqWzRjA5R1Eg/daxg0oyHZycWbdn6l2Psr/+1kU
B/6VowVCFX8ogowq/L7pbpxG1P6UzKD+hR/kg6K17j0Cz1tuug06rKtvXVCV/5+u
dY/Vzco=
-----END CERTIFICATE-----
