Certificate:
    Data:
        Version: 3 (0x2)
        Serial Number: 1 (0x1)
        Signature Algorithm: sha256WithRSAEncryption
        Issuer: C=CN, ST=SH, L=SH, O=czy, OU=czy, CN=root-ca
        Validity
            Not Before: May 10 11:07:35 2022 GMT
            Not After : May 10 11:07:35 2023 GMT
        Subject: C=CN, ST=SH, O=czy, OU=czy, CN=whoareyou
        Subject Public Key Info:
            Public Key Algorithm: rsaEncryption
                RSA Public-Key: (4096 bit)
                Modulus:
                    00:a6:e9:7f:c6:d0:2f:5c:a4:98:be:5c:d7:49:3a:
                    df:b2:32:59:d0:01:34:71:01:07:fc:68:24:f0:6d:
                    05:20:cd:3c:1d:1b:24:07:95:a5:33:24:47:7e:81:
                    e5:22:08:34:c3:39:4d:a4:23:01:6b:f7:71:0c:09:
                    2f:8a:9d:f1:bd:9d:25:6f:e2:7e:4b:1c:76:a7:0f:
                    f1:40:3e:cb:eb:9f:d1:53:7f:33:0e:0c:b2:4c:e3:
                    bc:e3:9e:e1:f4:0c:68:15:d1:d2:03:0b:08:4c:50:
                    21:48:a1:9a:15:77:08:1e:1e:37:10:70:6d:2f:37:
                    1e:55:35:16:9a:4f:8f:87:4b:48:dc:e3:7d:86:f8:
                    d8:ac:98:0e:7c:e7:2b:da:70:ee:c3:3b:1a:02:b9:
                    9f:3a:2d:2f:ea:6b:f9:a3:04:fc:10:70:52:e9:05:
                    75:29:22:48:38:58:cf:41:47:0c:80:ea:8e:bb:c3:
                    e8:4e:57:24:11:0d:97:66:4b:79:c2:75:8b:75:f8:
                    89:a1:24:b2:87:18:b6:c9:bc:91:e2:8c:b7:d4:13:
                    0a:cb:a1:6a:3a:95:67:7c:d0:cd:f4:c6:52:6b:b1:
                    d8:14:a9:f5:82:3a:e4:aa:de:e5:f0:be:95:14:9b:
                    d7:41:6a:e9:1c:19:c2:8f:05:b5:c3:6a:8a:95:42:
                    6c:05:50:d3:43:a3:d5:0a:6d:d4:cf:1a:40:e6:75:
                    49:46:52:a2:8b:42:b4:d4:6c:70:6e:9b:14:80:91:
                    7a:ac:55:7b:7a:92:98:df:6c:20:de:77:e4:d8:b0:
                    1f:59:54:6d:19:48:ab:17:71:a4:7e:23:58:fe:05:
                    c5:fb:7e:c2:5f:60:19:57:50:ec:90:3d:a6:c1:2f:
                    0a:f6:82:96:08:60:c9:26:f1:3b:45:a8:86:17:59:
                    80:62:b8:b4:92:bd:5b:5f:36:9c:b7:18:0a:58:04:
                    6d:4a:5c:0d:49:7a:3b:ce:ab:5e:1e:7d:b5:45:c3:
                    69:a9:f5:29:b4:80:51:95:c7:f1:43:24:44:37:be:
                    47:c9:99:7b:77:bf:06:ca:bd:6d:6e:4e:de:c7:9d:
                    0e:53:f2:e4:49:0a:d7:bd:7a:e9:61:e0:58:d7:23:
                    a6:9a:f8:6e:c6:58:46:64:50:f2:f8:b6:6f:2b:8e:
                    46:36:98:ad:c8:fd:92:d1:1d:51:f3:7a:d3:77:fa:
                    ab:bb:56:2b:4b:4f:c9:d7:93:f5:81:b1:f1:a4:f2:
                    3c:97:ae:13:bd:ac:e1:29:0c:79:ce:3a:9f:33:7c:
                    5a:36:81:2b:b2:87:38:13:71:63:41:86:1d:65:ba:
                    52:71:ca:08:67:3b:bf:90:2b:7a:eb:64:32:37:90:
                    e3:c1:9d
                Exponent: 65537 (0x10001)
        X509v3 extensions:
            X509v3 Key Usage: 
                Digital Signature, Non Repudiation, Key Encipherment
            X509v3 Extended Key Usage: 
                TLS Web Server Authentication, TLS Web Client Authentication
            X509v3 Subject Alternative Name: 
                DNS:ubun.cluster.com
    Signature Algorithm: sha256WithRSAEncryption
         a4:1b:83:cc:34:c1:63:0e:54:47:fb:30:6f:c0:54:65:fd:9c:
         9e:33:53:36:41:86:a2:d9:8f:cb:15:a9:ce:eb:d7:02:dd:57:
         14:7a:d3:b1:15:07:33:6b:ae:97:b1:1e:db:b8:7e:f7:5c:63:
         9f:c2:81:35:73:b1:90:be:c2:26:ad:b7:ec:9a:f9:a0:ae:e9:
         f8:63:de:4e:30:b8:ea:7a:0c:5b:75:cc:2a:91:59:44:68:30:
         77:2f:fe:75:18:45:00:b5:34:8b:71:16:6d:eb:6a:57:14:7e:
         99:b0:e4:fb:5f:b4:c8:0c:75:df:9b:db:56:c5:c0:bb:72:21:
         40:8f:73:9f:2b:e8:7a:e4:07:f9:81:04:fc:02:f7:f4:85:26:
         31:65:07:d8:7a:72:1e:b7:4b:68:85:6f:67:8d:f7:7e:c7:33:
         b0:57:64:73:e4:e6:7d:86:2c:cd:da:b1:e2:e4:43:8c:f8:13:
         1e:2d:78:d7:7f:d1:56:ae:ec:11:e8:1c:80:c7:a6:26:b2:5a:
         11:0a:32:9d:55:43:65:90:cb:28:c6:da:15:0f:0f:29:85:cc:
         1a:4b:f9:10:5d:40:29:80:1f:a4:b6:af:2c:bd:88:91:cc:97:
         b6:a1:02:11:9a:55:b5:0e:ae:3b:14:78:de:d4:90:b9:3c:ae:
         20:2a:36:30:2b:ec:35:4b:f5:23:f2:a8:35:b1:4a:f2:f4:b6:
         90:e3:2f:f9:70:ce:32:8c:30:c2:61:b8:2f:7a:a8:5b:0b:33:
         a5:7d:f1:de:86:5c:89:df:e6:10:2f:51:ea:16:40:4e:76:b2:
         50:e3:f8:82:e2:d8:61:61:3f:1e:32:6e:82:c2:a0:16:e3:1c:
         86:ef:57:a6:df:c6:23:1e:3c:92:cf:f1:63:e7:68:11:bf:b7:
         7e:50:4e:49:33:14:dc:d3:28:c6:3a:0a:68:b0:e4:c5:01:c0:
         f0:9f:43:b7:61:40:d7:aa:cc:67:4c:e5:3d:c4:6f:61:e1:49:
         69:4f:49:c9:a5:74:26:45:39:7c:33:b3:ff:15:9d:7d:52:e7:
         0f:5b:ed:14:8b:b3:9c:17:d7:25:0e:c2:36:f9:3e:ba:96:0b:
         4f:49:c0:8f:7e:d2:30:72:55:c4:10:ec:ea:04:43:13:14:d1:
         a6:20:12:a8:3e:6d:1d:0b:39:76:3d:27:e5:19:54:d1:4e:f6:
         f3:e1:9c:a6:6b:97:8e:04:b1:65:35:fd:61:1d:67:91:73:08:
         d4:ce:21:c1:c8:68:6b:38:1b:69:9b:b5:e2:dc:af:3f:2a:e3:
         34:92:2e:ca:ba:c2:cb:dc:58:da:34:39:52:96:36:23:79:53:
         84:59:cc:5a:86:11:fc:d8
-----BEGIN CERTIFICATE-----
MIIFZTCCA02gAwIBAgIBATANBgkqhkiG9w0BAQsFADBVMQswCQYDVQQGEwJDTjEL
MAkGA1UECAwCU0gxCzAJBgNVBAcMAlNIMQwwCgYDVQQKDANjenkxDDAKBgNVBAsM
A2N6eTEQMA4GA1UEAwwHcm9vdC1jYTAeFw0yMjA1MTAxMTA3MzVaFw0yMzA1MTAx
MTA3MzVaMEoxCzAJBgNVBAYTAkNOMQswCQYDVQQIDAJTSDEMMAoGA1UECgwDY3p5
MQwwCgYDVQQLDANjenkxEjAQBgNVBAMMCXdob2FyZXlvdTCCAiIwDQYJKoZIhvcN
AQEBBQADggIPADCCAgoCggIBAKbpf8bQL1ykmL5c10k637IyWdABNHEBB/xoJPBt
BSDNPB0bJAeVpTMkR36B5SIINMM5TaQjAWv3cQwJL4qd8b2dJW/ifkscdqcP8UA+
y+uf0VN/Mw4MskzjvOOe4fQMaBXR0gMLCExQIUihmhV3CB4eNxBwbS83HlU1FppP
j4dLSNzjfYb42KyYDnznK9pw7sM7GgK5nzotL+pr+aME/BBwUukFdSkiSDhYz0FH
DIDqjrvD6E5XJBENl2ZLecJ1i3X4iaEksocYtsm8keKMt9QTCsuhajqVZ3zQzfTG
Umux2BSp9YI65Kre5fC+lRSb10Fq6RwZwo8FtcNqipVCbAVQ00Oj1Qpt1M8aQOZ1
SUZSootCtNRscG6bFICReqxVe3qSmN9sIN535NiwH1lUbRlIqxdxpH4jWP4Fxft+
wl9gGVdQ7JA9psEvCvaClghgySbxO0WohhdZgGK4tJK9W182nLcYClgEbUpcDUl6
O86rXh59tUXDaan1KbSAUZXH8UMkRDe+R8mZe3e/Bsq9bW5O3sedDlPy5EkK1716
6WHgWNcjppr4bsZYRmRQ8vi2byuORjaYrcj9ktEdUfN603f6q7tWK0tPydeT9YGx
8aTyPJeuE72s4SkMec46nzN8WjaBK7KHOBNxY0GGHWW6UnHKCGc7v5AreutkMjeQ
48GdAgMBAAGjSzBJMAsGA1UdDwQEAwIF4DAdBgNVHSUEFjAUBggrBgEFBQcDAQYI
KwYBBQUHAwIwGwYDVR0RBBQwEoIQdWJ1bi5jbHVzdGVyLmNvbTANBgkqhkiG9w0B
AQsFAAOCAgEApBuDzDTBYw5UR/swb8BUZf2cnjNTNkGGotmPyxWpzuvXAt1XFHrT
sRUHM2uul7Ee27h+91xjn8KBNXOxkL7CJq237Jr5oK7p+GPeTjC46noMW3XMKpFZ
RGgwdy/+dRhFALU0i3EWbetqVxR+mbDk+1+0yAx135vbVsXAu3IhQI9znyvoeuQH
+YEE/AL39IUmMWUH2HpyHrdLaIVvZ433fsczsFdkc+TmfYYszdqx4uRDjPgTHi14
13/RVq7sEegcgMemJrJaEQoynVVDZZDLKMbaFQ8PKYXMGkv5EF1AKYAfpLavLL2I
kcyXtqECEZpVtQ6uOxR43tSQuTyuICo2MCvsNUv1I/KoNbFK8vS2kOMv+XDOMoww
wmG4L3qoWwszpX3x3oZcid/mEC9R6hZATnayUOP4guLYYWE/HjJugsKgFuMchu9X
pt/GIx48ks/xY+doEb+3flBOSTMU3NMoxjoKaLDkxQHA8J9Dt2FA16rMZ0zlPcRv
YeFJaU9JyaV0JkU5fDOz/xWdfVLnD1vtFIuznBfXJQ7CNvk+upYLT0nAj37SMHJV
xBDs6gRDExTRpiASqD5tHQs5dj0n5RlU0U728+GcpmuXjgSxZTX9YR1nkXMI1M4h
wchoazgbaZu14tyvPyrjNJIuyrrCy9xY2jQ5UpY2I3lThFnMWoYR/Ng=
-----END CERTIFICATE-----
